target datalayout = "e-m:e-p270:32:32-p271:32:32-p272:64:64-i64:64-i128:128-f80:128-n8:16:32:64-S128"
target triple = "x86_64-pc-linux-gnu"

@.str.17 = private unnamed_addr constant [25 x i8] c"../openssl/test/bntest.c\00", align 1
@ctx = internal global ptr null, align 8
@.str.451 = private unnamed_addr constant [16 x i8] c"zero = BN_new()\00", align 1
@.str.626 = private unnamed_addr constant [8 x i8] c"LShift1\00", align 1
@.str.639 = private unnamed_addr constant [18 x i8] c"a = getBN(s, \22A\22)\00", align 1
@.str.640 = private unnamed_addr constant [2 x i8] c"A\00", align 1
@.str.644 = private unnamed_addr constant [15 x i8] c"ret = BN_new()\00", align 1
@.str.688 = private unnamed_addr constant [30 x i8] c"lshift1 = getBN(s, \22LShift1\22)\00", align 1
@.str.689 = private unnamed_addr constant [15 x i8] c"two = BN_new()\00", align 1
@.str.690 = private unnamed_addr constant [21 x i8] c"remainder = BN_new()\00", align 1
@.str.691 = private unnamed_addr constant [20 x i8] c"BN_set_word(two, 2)\00", align 1
@.str.692 = private unnamed_addr constant [18 x i8] c"BN_add(ret, a, a)\00", align 1
@.str.693 = private unnamed_addr constant [6 x i8] c"A + A\00", align 1
@.str.694 = private unnamed_addr constant [25 x i8] c"BN_mul(ret, a, two, ctx)\00", align 1
@.str.695 = private unnamed_addr constant [6 x i8] c"A * 2\00", align 1
@.str.696 = private unnamed_addr constant [42 x i8] c"BN_div(ret, remainder, lshift1, two, ctx)\00", align 1
@.str.697 = private unnamed_addr constant [12 x i8] c"LShift1 / 2\00", align 1
@.str.698 = private unnamed_addr constant [12 x i8] c"LShift1 % 2\00", align 1
@.str.699 = private unnamed_addr constant [19 x i8] c"BN_lshift1(ret, a)\00", align 1
@.str.700 = private unnamed_addr constant [7 x i8] c"A << 1\00", align 1
@.str.701 = private unnamed_addr constant [25 x i8] c"BN_rshift1(ret, lshift1)\00", align 1
@.str.702 = private unnamed_addr constant [12 x i8] c"LShift >> 1\00", align 1
@.str.703 = private unnamed_addr constant [23 x i8] c"BN_set_bit(lshift1, 0)\00", align 1
@.str.704 = private unnamed_addr constant [38 x i8] c"BN_div(ret, NULL , lshift1, two, ctx)\00", align 1
@.str.705 = private unnamed_addr constant [18 x i8] c"(LShift1 | 1) / 2\00", align 1
@.str.706 = private unnamed_addr constant [18 x i8] c"(LShift | 1) >> 1\00", align 1

; Function Attrs: nounwind uwtable
define internal i32 @file_lshift1(ptr noundef %0) #0 {
  %2 = alloca ptr, align 8
  %3 = alloca ptr, align 8
  %4 = alloca ptr, align 8
  %5 = alloca ptr, align 8
  %6 = alloca ptr, align 8
  %7 = alloca ptr, align 8
  %8 = alloca ptr, align 8
  %9 = alloca i32, align 4
  store ptr %0, ptr %2, align 8, !tbaa !70
  call void @llvm.lifetime.start.p0(i64 8, ptr %3) #7
  store ptr null, ptr %3, align 8, !tbaa !13
  call void @llvm.lifetime.start.p0(i64 8, ptr %4) #7
  store ptr null, ptr %4, align 8, !tbaa !13
  call void @llvm.lifetime.start.p0(i64 8, ptr %5) #7
  store ptr null, ptr %5, align 8, !tbaa !13
  call void @llvm.lifetime.start.p0(i64 8, ptr %6) #7
  store ptr null, ptr %6, align 8, !tbaa !13
  call void @llvm.lifetime.start.p0(i64 8, ptr %7) #7
  store ptr null, ptr %7, align 8, !tbaa !13
  call void @llvm.lifetime.start.p0(i64 8, ptr %8) #7
  store ptr null, ptr %8, align 8, !tbaa !13
  call void @llvm.lifetime.start.p0(i64 4, ptr %9) #7
  store i32 0, ptr %9, align 4, !tbaa !4
  %10 = load ptr, ptr %2, align 8, !tbaa !70
  %11 = call ptr @getBN(ptr noundef %10, ptr noundef @.str.640)
  store ptr %11, ptr %3, align 8, !tbaa !13
  %12 = call i32 @test_ptr(ptr noundef @.str.17, i32 noundef 1330, ptr noundef @.str.639, ptr noundef %11)
  %13 = icmp ne i32 %12, 0
  br i1 %13, label %14, label %35

14:                                               ; preds = %1
  %15 = load ptr, ptr %2, align 8, !tbaa !70
  %16 = call ptr @getBN(ptr noundef %15, ptr noundef @.str.626)
  store ptr %16, ptr %4, align 8, !tbaa !13
  %17 = call i32 @test_ptr(ptr noundef @.str.17, i32 noundef 1331, ptr noundef @.str.688, ptr noundef %16)
  %18 = icmp ne i32 %17, 0
  br i1 %18, label %19, label %35

19:                                               ; preds = %14
  %20 = call ptr @BN_new()
  store ptr %20, ptr %5, align 8, !tbaa !13
  %21 = call i32 @test_ptr(ptr noundef @.str.17, i32 noundef 1332, ptr noundef @.str.451, ptr noundef %20)
  %22 = icmp ne i32 %21, 0
  br i1 %22, label %23, label %35

23:                                               ; preds = %19
  %24 = call ptr @BN_new()
  store ptr %24, ptr %6, align 8, !tbaa !13
  %25 = call i32 @test_ptr(ptr noundef @.str.17, i32 noundef 1333, ptr noundef @.str.644, ptr noundef %24)
  %26 = icmp ne i32 %25, 0
  br i1 %26, label %27, label %35

27:                                               ; preds = %23
  %28 = call ptr @BN_new()
  store ptr %28, ptr %7, align 8, !tbaa !13
  %29 = call i32 @test_ptr(ptr noundef @.str.17, i32 noundef 1334, ptr noundef @.str.689, ptr noundef %28)
  %30 = icmp ne i32 %29, 0
  br i1 %30, label %31, label %35

31:                                               ; preds = %27
  %32 = call ptr @BN_new()
  store ptr %32, ptr %8, align 8, !tbaa !13
  %33 = call i32 @test_ptr(ptr noundef @.str.17, i32 noundef 1335, ptr noundef @.str.690, ptr noundef %32)
  %34 = icmp ne i32 %33, 0
  br i1 %34, label %36, label %35

35:                                               ; preds = %31, %27, %23, %19, %14, %1
  br label %171

36:                                               ; preds = %31
  %37 = load ptr, ptr %5, align 8, !tbaa !13
  call void @BN_zero_ex(ptr noundef %37)
  %38 = load ptr, ptr %7, align 8, !tbaa !13
  %39 = call i32 @BN_set_word(ptr noundef %38, i64 noundef 2)
  %40 = icmp ne i32 %39, 0
  %41 = zext i1 %40 to i32
  %42 = call i32 @test_true(ptr noundef @.str.17, i32 noundef 1340, ptr noundef @.str.691, i32 noundef %41)
  %43 = icmp ne i32 %42, 0
  br i1 %43, label %44, label %133

44:                                               ; preds = %36
  %45 = load ptr, ptr %6, align 8, !tbaa !13
  %46 = load ptr, ptr %3, align 8, !tbaa !13
  %47 = load ptr, ptr %3, align 8, !tbaa !13
  %48 = call i32 @BN_add(ptr noundef %45, ptr noundef %46, ptr noundef %47)
  %49 = icmp ne i32 %48, 0
  %50 = zext i1 %49 to i32
  %51 = call i32 @test_true(ptr noundef @.str.17, i32 noundef 1341, ptr noundef @.str.692, i32 noundef %50)
  %52 = icmp ne i32 %51, 0
  br i1 %52, label %53, label %133

53:                                               ; preds = %44
  %54 = load ptr, ptr %4, align 8, !tbaa !13
  %55 = load ptr, ptr %6, align 8, !tbaa !13
  %56 = call i32 @equalBN(ptr noundef @.str.693, ptr noundef %54, ptr noundef %55)
  %57 = icmp ne i32 %56, 0
  br i1 %57, label %58, label %133

58:                                               ; preds = %53
  %59 = load ptr, ptr %6, align 8, !tbaa !13
  %60 = load ptr, ptr %3, align 8, !tbaa !13
  %61 = load ptr, ptr %7, align 8, !tbaa !13
  %62 = load ptr, ptr @ctx, align 8, !tbaa !10
  %63 = call i32 @BN_mul(ptr noundef %59, ptr noundef %60, ptr noundef %61, ptr noundef %62)
  %64 = icmp ne i32 %63, 0
  %65 = zext i1 %64 to i32
  %66 = call i32 @test_true(ptr noundef @.str.17, i32 noundef 1343, ptr noundef @.str.694, i32 noundef %65)
  %67 = icmp ne i32 %66, 0
  br i1 %67, label %68, label %133

68:                                               ; preds = %58
  %69 = load ptr, ptr %4, align 8, !tbaa !13
  %70 = load ptr, ptr %6, align 8, !tbaa !13
  %71 = call i32 @equalBN(ptr noundef @.str.695, ptr noundef %69, ptr noundef %70)
  %72 = icmp ne i32 %71, 0
  br i1 %72, label %73, label %133

73:                                               ; preds = %68
  %74 = load ptr, ptr %6, align 8, !tbaa !13
  %75 = load ptr, ptr %8, align 8, !tbaa !13
  %76 = load ptr, ptr %4, align 8, !tbaa !13
  %77 = load ptr, ptr %7, align 8, !tbaa !13
  %78 = load ptr, ptr @ctx, align 8, !tbaa !10
  %79 = call i32 @BN_div(ptr noundef %74, ptr noundef %75, ptr noundef %76, ptr noundef %77, ptr noundef %78)
  %80 = icmp ne i32 %79, 0
  %81 = zext i1 %80 to i32
  %82 = call i32 @test_true(ptr noundef @.str.17, i32 noundef 1345, ptr noundef @.str.696, i32 noundef %81)
  %83 = icmp ne i32 %82, 0
  br i1 %83, label %84, label %133

84:                                               ; preds = %73
  %85 = load ptr, ptr %3, align 8, !tbaa !13
  %86 = load ptr, ptr %6, align 8, !tbaa !13
  %87 = call i32 @equalBN(ptr noundef @.str.697, ptr noundef %85, ptr noundef %86)
  %88 = icmp ne i32 %87, 0
  br i1 %88, label %89, label %133

89:                                               ; preds = %84
  %90 = load ptr, ptr %5, align 8, !tbaa !13
  %91 = load ptr, ptr %8, align 8, !tbaa !13
  %92 = call i32 @equalBN(ptr noundef @.str.698, ptr noundef %90, ptr noundef %91)
  %93 = icmp ne i32 %92, 0
  br i1 %93, label %94, label %133

94:                                               ; preds = %89
  %95 = load ptr, ptr %6, align 8, !tbaa !13
  %96 = load ptr, ptr %3, align 8, !tbaa !13
  %97 = call i32 @BN_lshift1(ptr noundef %95, ptr noundef %96)
  %98 = icmp ne i32 %97, 0
  %99 = zext i1 %98 to i32
  %100 = call i32 @test_true(ptr noundef @.str.17, i32 noundef 1348, ptr noundef @.str.699, i32 noundef %99)
  %101 = icmp ne i32 %100, 0
  br i1 %101, label %102, label %133

102:                                              ; preds = %94
  %103 = load ptr, ptr %4, align 8, !tbaa !13
  %104 = load ptr, ptr %6, align 8, !tbaa !13
  %105 = call i32 @equalBN(ptr noundef @.str.700, ptr noundef %103, ptr noundef %104)
  %106 = icmp ne i32 %105, 0
  br i1 %106, label %107, label %133

107:                                              ; preds = %102
  %108 = load ptr, ptr %6, align 8, !tbaa !13
  %109 = load ptr, ptr %4, align 8, !tbaa !13
  %110 = call i32 @BN_rshift1(ptr noundef %108, ptr noundef %109)
  %111 = icmp ne i32 %110, 0
  %112 = zext i1 %111 to i32
  %113 = call i32 @test_true(ptr noundef @.str.17, i32 noundef 1350, ptr noundef @.str.701, i32 noundef %112)
  %114 = icmp ne i32 %113, 0
  br i1 %114, label %115, label %133

115:                                              ; preds = %107
  %116 = load ptr, ptr %3, align 8, !tbaa !13
  %117 = load ptr, ptr %6, align 8, !tbaa !13
  %118 = call i32 @equalBN(ptr noundef @.str.702, ptr noundef %116, ptr noundef %117)
  %119 = icmp ne i32 %118, 0
  br i1 %119, label %120, label %133

120:                                              ; preds = %115
  %121 = load ptr, ptr %6, align 8, !tbaa !13
  %122 = load ptr, ptr %4, align 8, !tbaa !13
  %123 = call i32 @BN_rshift1(ptr noundef %121, ptr noundef %122)
  %124 = icmp ne i32 %123, 0
  %125 = zext i1 %124 to i32
  %126 = call i32 @test_true(ptr noundef @.str.17, i32 noundef 1352, ptr noundef @.str.701, i32 noundef %125)
  %127 = icmp ne i32 %126, 0
  br i1 %127, label %128, label %133

128:                                              ; preds = %120
  %129 = load ptr, ptr %3, align 8, !tbaa !13
  %130 = load ptr, ptr %6, align 8, !tbaa !13
  %131 = call i32 @equalBN(ptr noundef @.str.702, ptr noundef %129, ptr noundef %130)
  %132 = icmp ne i32 %131, 0
  br i1 %132, label %134, label %133

133:                                              ; preds = %128, %120, %115, %107, %102, %94, %89, %84, %73, %68, %58, %53, %44, %36
  br label %171

134:                                              ; preds = %128
  %135 = load ptr, ptr %4, align 8, !tbaa !13
  %136 = call i32 @BN_set_bit(ptr noundef %135, i32 noundef 0)
  %137 = icmp ne i32 %136, 0
  %138 = zext i1 %137 to i32
  %139 = call i32 @test_true(ptr noundef @.str.17, i32 noundef 1357, ptr noundef @.str.703, i32 noundef %138)
  %140 = icmp ne i32 %139, 0
  br i1 %140, label %141, label %169

141:                                              ; preds = %134
  %142 = load ptr, ptr %6, align 8, !tbaa !13
  %143 = load ptr, ptr %4, align 8, !tbaa !13
  %144 = load ptr, ptr %7, align 8, !tbaa !13
  %145 = load ptr, ptr @ctx, align 8, !tbaa !10
  %146 = call i32 @BN_div(ptr noundef %142, ptr noundef null, ptr noundef %143, ptr noundef %144, ptr noundef %145)
  %147 = icmp ne i32 %146, 0
  %148 = zext i1 %147 to i32
  %149 = call i32 @test_true(ptr noundef @.str.17, i32 noundef 1358, ptr noundef @.str.704, i32 noundef %148)
  %150 = icmp ne i32 %149, 0
  br i1 %150, label %151, label %169

151:                                              ; preds = %141
  %152 = load ptr, ptr %3, align 8, !tbaa !13
  %153 = load ptr, ptr %6, align 8, !tbaa !13
  %154 = call i32 @equalBN(ptr noundef @.str.705, ptr noundef %152, ptr noundef %153)
  %155 = icmp ne i32 %154, 0
  br i1 %155, label %156, label %169

156:                                              ; preds = %151
  %157 = load ptr, ptr %6, align 8, !tbaa !13
  %158 = load ptr, ptr %4, align 8, !tbaa !13
  %159 = call i32 @BN_rshift1(ptr noundef %157, ptr noundef %158)
  %160 = icmp ne i32 %159, 0
  %161 = zext i1 %160 to i32
  %162 = call i32 @test_true(ptr noundef @.str.17, i32 noundef 1360, ptr noundef @.str.701, i32 noundef %161)
  %163 = icmp ne i32 %162, 0
  br i1 %163, label %164, label %169

164:                                              ; preds = %156
  %165 = load ptr, ptr %3, align 8, !tbaa !13
  %166 = load ptr, ptr %6, align 8, !tbaa !13
  %167 = call i32 @equalBN(ptr noundef @.str.706, ptr noundef %165, ptr noundef %166)
  %168 = icmp ne i32 %167, 0
  br i1 %168, label %170, label %169

169:                                              ; preds = %164, %156, %151, %141, %134
  br label %171

170:                                              ; preds = %164
  store i32 1, ptr %9, align 4, !tbaa !4
  br label %171

171:                                              ; preds = %170, %169, %133, %35
  %172 = load ptr, ptr %3, align 8, !tbaa !13
  call void @BN_free(ptr noundef %172)
  %173 = load ptr, ptr %4, align 8, !tbaa !13
  call void @BN_free(ptr noundef %173)
  %174 = load ptr, ptr %5, align 8, !tbaa !13
  call void @BN_free(ptr noundef %174)
  %175 = load ptr, ptr %6, align 8, !tbaa !13
  call void @BN_free(ptr noundef %175)
  %176 = load ptr, ptr %7, align 8, !tbaa !13
  call void @BN_free(ptr noundef %176)
  %177 = load ptr, ptr %8, align 8, !tbaa !13
  call void @BN_free(ptr noundef %177)
  %178 = load i32, ptr %9, align 4, !tbaa !4
  call void @llvm.lifetime.end.p0(i64 4, ptr %9) #7
  call void @llvm.lifetime.end.p0(i64 8, ptr %8) #7
  call void @llvm.lifetime.end.p0(i64 8, ptr %7) #7
  call void @llvm.lifetime.end.p0(i64 8, ptr %6) #7
  call void @llvm.lifetime.end.p0(i64 8, ptr %5) #7
  call void @llvm.lifetime.end.p0(i64 8, ptr %4) #7
  call void @llvm.lifetime.end.p0(i64 8, ptr %3) #7
  ret i32 %178
}