; Function Attrs: nounwind uwtable
define internal range(i32 0, 2) i32 @file_lshift1(ptr noundef readonly captures(none) %0) #1 {
  %2 = tail call fastcc ptr @getBN(ptr noundef %0, ptr noundef nonnull @.str.640)
  %3 = tail call i32 @test_ptr(ptr noundef nonnull @.str.17, i32 noundef 1330, ptr noundef nonnull @.str.639, ptr noundef %2) #8
  %.not = icmp eq i32 %3, 0
  br i1 %.not, label %91, label %4

4:                                                ; preds = %1
  %5 = tail call fastcc ptr @getBN(ptr noundef %0, ptr noundef nonnull @.str.626)
  %6 = tail call i32 @test_ptr(ptr noundef nonnull @.str.17, i32 noundef 1331, ptr noundef nonnull @.str.688, ptr noundef %5) #8
  %.not55 = icmp eq i32 %6, 0
  br i1 %.not55, label %91, label %7

7:                                                ; preds = %4
  %8 = tail call ptr @BN_new() #8
  %9 = tail call i32 @test_ptr(ptr noundef nonnull @.str.17, i32 noundef 1332, ptr noundef nonnull @.str.451, ptr noundef %8) #8
  %.not56 = icmp eq i32 %9, 0
  br i1 %.not56, label %91, label %10

10:                                               ; preds = %7
  %11 = tail call ptr @BN_new() #8
  %12 = tail call i32 @test_ptr(ptr noundef nonnull @.str.17, i32 noundef 1333, ptr noundef nonnull @.str.644, ptr noundef %11) #8
  %.not57 = icmp eq i32 %12, 0
  br i1 %.not57, label %91, label %13

13:                                               ; preds = %10
  %14 = tail call ptr @BN_new() #8
  %15 = tail call i32 @test_ptr(ptr noundef nonnull @.str.17, i32 noundef 1334, ptr noundef nonnull @.str.689, ptr noundef %14) #8
  %.not58 = icmp eq i32 %15, 0
  br i1 %.not58, label %91, label %16

16:                                               ; preds = %13
  %17 = tail call ptr @BN_new() #8
  %18 = tail call i32 @test_ptr(ptr noundef nonnull @.str.17, i32 noundef 1335, ptr noundef nonnull @.str.690, ptr noundef %17) #8
  %.not59 = icmp eq i32 %18, 0
  br i1 %.not59, label %91, label %19

19:                                               ; preds = %16
  tail call void @BN_zero_ex(ptr noundef %8) #8
  %20 = tail call i32 @BN_set_word(ptr noundef %14, i64 noundef 2) #8
  %21 = icmp ne i32 %20, 0
  %22 = zext i1 %21 to i32
  %23 = tail call i32 @test_true(ptr noundef nonnull @.str.17, i32 noundef 1340, ptr noundef nonnull @.str.691, i32 noundef %22) #8
  %.not60 = icmp eq i32 %23, 0
  br i1 %.not60, label %91, label %24

24:                                               ; preds = %19
  %25 = tail call i32 @BN_add(ptr noundef %11, ptr noundef %2, ptr noundef %2) #8
  %26 = icmp ne i32 %25, 0
  %27 = zext i1 %26 to i32
  %28 = tail call i32 @test_true(ptr noundef nonnull @.str.17, i32 noundef 1341, ptr noundef nonnull @.str.692, i32 noundef %27) #8
  %.not61 = icmp eq i32 %28, 0
  br i1 %.not61, label %91, label %29

29:                                               ; preds = %24
  %30 = tail call i32 @BN_cmp(ptr noundef %5, ptr noundef %11) #8
  %31 = icmp eq i32 %30, 0
  br i1 %31, label %equalBN.exit, label %equalBN.exit.thread

equalBN.exit.thread:                              ; preds = %29
  tail call void (ptr, i32, ptr, ...) @test_error(ptr noundef nonnull @.str.17, i32 noundef 135, ptr noundef nonnull @.str.493, ptr noundef nonnull @.str.693) #8
  %32 = tail call i32 @test_BN_eq(ptr noundef nonnull @.str.17, i32 noundef 136, ptr noundef nonnull @.str.494, ptr noundef nonnull @.str.495, ptr noundef %5, ptr noundef %11) #8
  br label %91

equalBN.exit:                                     ; preds = %29
  %33 = load ptr, ptr @ctx, align 8, !tbaa !6
  %34 = tail call i32 @BN_mul(ptr noundef %11, ptr noundef %2, ptr noundef %14, ptr noundef %33) #8
  %35 = icmp ne i32 %34, 0
  %36 = zext i1 %35 to i32
  %37 = tail call i32 @test_true(ptr noundef nonnull @.str.17, i32 noundef 1343, ptr noundef nonnull @.str.694, i32 noundef %36) #8
  %.not63 = icmp eq i32 %37, 0
  br i1 %.not63, label %91, label %38

38:                                               ; preds = %equalBN.exit
  %39 = tail call fastcc i32 @equalBN(ptr noundef nonnull @.str.695, ptr noundef %5, ptr noundef %11)
  %.not64 = icmp eq i32 %39, 0
  br i1 %.not64, label %91, label %40

40:                                               ; preds = %38
  %41 = load ptr, ptr @ctx, align 8, !tbaa !6
  %42 = tail call i32 @BN_div(ptr noundef %11, ptr noundef %17, ptr noundef %5, ptr noundef %14, ptr noundef %41) #8
  %43 = icmp ne i32 %42, 0
  %44 = zext i1 %43 to i32
  %45 = tail call i32 @test_true(ptr noundef nonnull @.str.17, i32 noundef 1345, ptr noundef nonnull @.str.696, i32 noundef %44) #8
  %.not65 = icmp eq i32 %45, 0
  br i1 %.not65, label %91, label %46

46:                                               ; preds = %40
  %47 = tail call fastcc i32 @equalBN(ptr noundef nonnull @.str.697, ptr noundef %2, ptr noundef %11)
  %.not66 = icmp eq i32 %47, 0
  br i1 %.not66, label %91, label %48

48:                                               ; preds = %46
  %49 = tail call fastcc i32 @equalBN(ptr noundef nonnull @.str.698, ptr noundef %8, ptr noundef %17)
  %.not67 = icmp eq i32 %49, 0
  br i1 %.not67, label %91, label %50

50:                                               ; preds = %48
  %51 = tail call i32 @BN_lshift1(ptr noundef %11, ptr noundef %2) #8
  %52 = icmp ne i32 %51, 0
  %53 = zext i1 %52 to i32
  %54 = tail call i32 @test_true(ptr noundef nonnull @.str.17, i32 noundef 1348, ptr noundef nonnull @.str.699, i32 noundef %53) #8
  %.not68 = icmp eq i32 %54, 0
  br i1 %.not68, label %91, label %55

55:                                               ; preds = %50
  %56 = tail call fastcc i32 @equalBN(ptr noundef nonnull @.str.700, ptr noundef %5, ptr noundef %11)
  %.not69 = icmp eq i32 %56, 0
  br i1 %.not69, label %91, label %57

57:                                               ; preds = %55
  %58 = tail call i32 @BN_rshift1(ptr noundef %11, ptr noundef %5) #8
  %59 = icmp ne i32 %58, 0
  %60 = zext i1 %59 to i32
  %61 = tail call i32 @test_true(ptr noundef nonnull @.str.17, i32 noundef 1350, ptr noundef nonnull @.str.701, i32 noundef %60) #8
  %.not70 = icmp eq i32 %61, 0
  br i1 %.not70, label %91, label %62

62:                                               ; preds = %57
  %63 = tail call fastcc i32 @equalBN(ptr noundef nonnull @.str.702, ptr noundef %2, ptr noundef %11)
  %.not71 = icmp eq i32 %63, 0
  br i1 %.not71, label %91, label %64

64:                                               ; preds = %62
  %65 = tail call i32 @BN_rshift1(ptr noundef %11, ptr noundef %5) #8
  %66 = icmp ne i32 %65, 0
  %67 = zext i1 %66 to i32
  %68 = tail call i32 @test_true(ptr noundef nonnull @.str.17, i32 noundef 1352, ptr noundef nonnull @.str.701, i32 noundef %67) #8
  %.not72 = icmp eq i32 %68, 0
  br i1 %.not72, label %91, label %69

69:                                               ; preds = %64
  %70 = tail call fastcc i32 @equalBN(ptr noundef nonnull @.str.702, ptr noundef %2, ptr noundef %11)
  %.not73 = icmp eq i32 %70, 0
  br i1 %.not73, label %91, label %71

71:                                               ; preds = %69
  %72 = tail call i32 @BN_set_bit(ptr noundef %5, i32 noundef 0) #8
  %73 = icmp ne i32 %72, 0
  %74 = zext i1 %73 to i32
  %75 = tail call i32 @test_true(ptr noundef nonnull @.str.17, i32 noundef 1357, ptr noundef nonnull @.str.703, i32 noundef %74) #8
  %.not74 = icmp eq i32 %75, 0
  br i1 %.not74, label %91, label %76

76:                                               ; preds = %71
  %77 = load ptr, ptr @ctx, align 8, !tbaa !6
  %78 = tail call i32 @BN_div(ptr noundef %11, ptr noundef null, ptr noundef %5, ptr noundef %14, ptr noundef %77) #8
  %79 = icmp ne i32 %78, 0
  %80 = zext i1 %79 to i32
  %81 = tail call i32 @test_true(ptr noundef nonnull @.str.17, i32 noundef 1358, ptr noundef nonnull @.str.704, i32 noundef %80) #8
  %.not75 = icmp eq i32 %81, 0
  br i1 %.not75, label %91, label %82

82:                                               ; preds = %76
  %83 = tail call fastcc i32 @equalBN(ptr noundef nonnull @.str.705, ptr noundef %2, ptr noundef %11)
  %.not76 = icmp eq i32 %83, 0
  br i1 %.not76, label %91, label %84

84:                                               ; preds = %82
  %85 = tail call i32 @BN_rshift1(ptr noundef %11, ptr noundef %5) #8
  %86 = icmp ne i32 %85, 0
  %87 = zext i1 %86 to i32
  %88 = tail call i32 @test_true(ptr noundef nonnull @.str.17, i32 noundef 1360, ptr noundef nonnull @.str.701, i32 noundef %87) #8
  %.not77 = icmp eq i32 %88, 0
  br i1 %.not77, label %91, label %89

89:                                               ; preds = %84
  %90 = tail call fastcc i32 @equalBN(ptr noundef nonnull @.str.706, ptr noundef %2, ptr noundef %11)
  br label %91

91:                                               ; preds = %equalBN.exit.thread, %89, %71, %76, %82, %84, %19, %24, %equalBN.exit, %38, %40, %46, %48, %50, %55, %57, %62, %64, %69, %1, %4, %7, %10, %13, %16
  %.054 = phi ptr [ %5, %84 ], [ %5, %82 ], [ %5, %76 ], [ %5, %71 ], [ %5, %69 ], [ %5, %64 ], [ %5, %62 ], [ %5, %57 ], [ %5, %55 ], [ %5, %50 ], [ %5, %48 ], [ %5, %46 ], [ %5, %40 ], [ %5, %38 ], [ %5, %equalBN.exit ], [ %5, %24 ], [ %5, %19 ], [ %5, %16 ], [ %5, %13 ], [ %5, %10 ], [ %5, %7 ], [ %5, %4 ], [ null, %1 ], [ %5, %89 ], [ %5, %equalBN.exit.thread ]
  %.053 = phi ptr [ %8, %84 ], [ %8, %82 ], [ %8, %76 ], [ %8, %71 ], [ %8, %69 ], [ %8, %64 ], [ %8, %62 ], [ %8, %57 ], [ %8, %55 ], [ %8, %50 ], [ %8, %48 ], [ %8, %46 ], [ %8, %40 ], [ %8, %38 ], [ %8, %equalBN.exit ], [ %8, %24 ], [ %8, %19 ], [ %8, %16 ], [ %8, %13 ], [ %8, %10 ], [ %8, %7 ], [ null, %4 ], [ null, %1 ], [ %8, %89 ], [ %8, %equalBN.exit.thread ]
  %.052 = phi ptr [ %11, %84 ], [ %11, %82 ], [ %11, %76 ], [ %11, %71 ], [ %11, %69 ], [ %11, %64 ], [ %11, %62 ], [ %11, %57 ], [ %11, %55 ], [ %11, %50 ], [ %11, %48 ], [ %11, %46 ], [ %11, %40 ], [ %11, %38 ], [ %11, %equalBN.exit ], [ %11, %24 ], [ %11, %19 ], [ %11, %16 ], [ %11, %13 ], [ %11, %10 ], [ null, %7 ], [ null, %4 ], [ null, %1 ], [ %11, %89 ], [ %11, %equalBN.exit.thread ]
  %.051 = phi ptr [ %14, %84 ], [ %14, %82 ], [ %14, %76 ], [ %14, %71 ], [ %14, %69 ], [ %14, %64 ], [ %14, %62 ], [ %14, %57 ], [ %14, %55 ], [ %14, %50 ], [ %14, %48 ], [ %14, %46 ], [ %14, %40 ], [ %14, %38 ], [ %14, %equalBN.exit ], [ %14, %24 ], [ %14, %19 ], [ %14, %16 ], [ %14, %13 ], [ null, %10 ], [ null, %7 ], [ null, %4 ], [ null, %1 ], [ %14, %89 ], [ %14, %equalBN.exit.thread ]
  %.050 = phi ptr [ %17, %84 ], [ %17, %82 ], [ %17, %76 ], [ %17, %71 ], [ %17, %69 ], [ %17, %64 ], [ %17, %62 ], [ %17, %57 ], [ %17, %55 ], [ %17, %50 ], [ %17, %48 ], [ %17, %46 ], [ %17, %40 ], [ %17, %38 ], [ %17, %equalBN.exit ], [ %17, %24 ], [ %17, %19 ], [ %17, %16 ], [ null, %13 ], [ null, %10 ], [ null, %7 ], [ null, %4 ], [ null, %1 ], [ %17, %89 ], [ %17, %equalBN.exit.thread ]
  %.0 = phi i32 [ 0, %84 ], [ 0, %82 ], [ 0, %76 ], [ 0, %71 ], [ 0, %69 ], [ 0, %64 ], [ 0, %62 ], [ 0, %57 ], [ 0, %55 ], [ 0, %50 ], [ 0, %48 ], [ 0, %46 ], [ 0, %40 ], [ 0, %38 ], [ 0, %equalBN.exit ], [ 0, %24 ], [ 0, %19 ], [ 0, %16 ], [ 0, %13 ], [ 0, %10 ], [ 0, %7 ], [ 0, %4 ], [ 0, %1 ], [ %90, %89 ], [ 0, %equalBN.exit.thread ]
  tail call void @BN_free(ptr noundef %2) #8
  tail call void @BN_free(ptr noundef %.054) #8
  tail call void @BN_free(ptr noundef %.053) #8
  tail call void @BN_free(ptr noundef %.052) #8
  tail call void @BN_free(ptr noundef %.051) #8
  tail call void @BN_free(ptr noundef %.050) #8
  ret i32 %.0
}